target datalayout = "e-m:e-p270:32:32-p271:32:32-p272:64:64-i64:64-i128:128-f80:128-n8:16:32:64-S128"
target triple = "x86_64-pc-linux-gnu"

%struct.PJconsts = type <{ ptr, ptr, ptr, ptr, ptr, ptr, ptr, ptr, ptr, ptr, ptr, ptr, i32, [4 x i8], ptr, ptr, ptr, ptr, ptr, ptr, ptr, ptr, double, double, double, double, double, double, double, double, double, double, double, double, double, double, double, double, double, double, double, double, double, double, i32, i32, i32, i32, i32, i32, i32, i32, i32, i32, i32, [4 x i8], ptr, ptr, ptr, ptr, ptr, ptr, double, double, double, double, double, double, double, double, double, double, double, i32, [4 x i8], [7 x double], i32, [4 x i8], ptr, ptr, double, double, i32, [4 x i8], %"class.std::shared_ptr", i8, [7 x i8], double, i8, [7 x i8], %"class.std::__cxx11::basic_string", %"class.std::__cxx11::basic_string", %"class.std::__cxx11::basic_string", i8, [7 x i8], %"class.std::vector", i32, [4 x i8], %"class.std::vector.3", i32, i8, i8, i8, i8 }>
%"class.std::shared_ptr" = type { %"class.std::__shared_ptr" }
%"class.std::__shared_ptr" = type { ptr, %"class.std::__shared_count" }
%"class.std::__shared_count" = type { ptr }
%"class.std::__cxx11::basic_string" = type { %"struct.std::__cxx11::basic_string<char>::_Alloc_hider", i64, %union.anon }
%"struct.std::__cxx11::basic_string<char>::_Alloc_hider" = type { ptr }
%union.anon = type { i64, [8 x i8] }
%"class.std::vector" = type { %"struct.std::_Vector_base" }
%"struct.std::_Vector_base" = type { %"struct.std::_Vector_base<osgeo::proj::operation::GridDescription, std::allocator<osgeo::proj::operation::GridDescription>>::_Vector_impl" }
%"struct.std::_Vector_base<osgeo::proj::operation::GridDescription, std::allocator<osgeo::proj::operation::GridDescription>>::_Vector_impl" = type { %"struct.std::_Vector_base<osgeo::proj::operation::GridDescription, std::allocator<osgeo::proj::operation::GridDescription>>::_Vector_impl_data" }
%"struct.std::_Vector_base<osgeo::proj::operation::GridDescription, std::allocator<osgeo::proj::operation::GridDescription>>::_Vector_impl_data" = type { ptr, ptr, ptr }
%"class.std::vector.3" = type { %"struct.std::_Vector_base.4" }
%"struct.std::_Vector_base.4" = type { %"struct.std::_Vector_base<PJCoordOperation, std::allocator<PJCoordOperation>>::_Vector_impl" }
%"struct.std::_Vector_base<PJCoordOperation, std::allocator<PJCoordOperation>>::_Vector_impl" = type { %"struct.std::_Vector_base<PJCoordOperation, std::allocator<PJCoordOperation>>::_Vector_impl_data" }
%"struct.std::_Vector_base<PJCoordOperation, std::allocator<PJCoordOperation>>::_Vector_impl_data" = type { ptr, ptr, ptr }
%"struct.(anonymous namespace)::pj_putp6" = type { double, double, double, double, double }
%struct.PJ_LP = type { double, double }
%struct.PJ_XY = type { double, double }

; Function Attrs: mustprogress uwtable
define internal { double, double } @_ZL15putp6_s_inverse5PJ_XYP8PJconsts(double %0, double %1, ptr noundef %2) #0 {
  %4 = alloca %struct.PJ_LP, align 8
  %5 = alloca %struct.PJ_XY, align 8
  %6 = alloca ptr, align 8
  %7 = alloca ptr, align 8
  %8 = alloca double, align 8
  %9 = getelementptr inbounds { double, double }, ptr %5, i32 0, i32 0
  store double %0, ptr %9, align 8
  %10 = getelementptr inbounds { double, double }, ptr %5, i32 0, i32 1
  store double %1, ptr %10, align 8
  store ptr %2, ptr %6, align 8
  call void @llvm.memset.p0.i64(ptr align 8 %4, i8 0, i64 16, i1 false)
  %11 = load ptr, ptr %6, align 8
  %12 = getelementptr inbounds %struct.PJconsts, ptr %11, i32 0, i32 11
  %13 = load ptr, ptr %12, align 8
  store ptr %13, ptr %7, align 8
  %14 = getelementptr inbounds %struct.PJ_XY, ptr %5, i32 0, i32 1
  %15 = load double, ptr %14, align 8
  %16 = load ptr, ptr %7, align 8
  %17 = getelementptr inbounds %"struct.(anonymous namespace)::pj_putp6", ptr %16, i32 0, i32 1
  %18 = load double, ptr %17, align 8
  %19 = fdiv double %15, %18
  %20 = getelementptr inbounds %struct.PJ_LP, ptr %4, i32 0, i32 1
  store double %19, ptr %20, align 8
  %21 = getelementptr inbounds %struct.PJ_LP, ptr %4, i32 0, i32 1
  %22 = load double, ptr %21, align 8
  %23 = getelementptr inbounds %struct.PJ_LP, ptr %4, i32 0, i32 1
  %24 = load double, ptr %23, align 8
  %25 = call double @llvm.fmuladd.f64(double %22, double %24, double 1.000000e+00)
  %26 = call double @sqrt(double noundef %25) #8
  store double %26, ptr %8, align 8
  %27 = getelementptr inbounds %struct.PJ_XY, ptr %5, i32 0, i32 0
  %28 = load double, ptr %27, align 8
  %29 = load ptr, ptr %7, align 8
  %30 = getelementptr inbounds %"struct.(anonymous namespace)::pj_putp6", ptr %29, i32 0, i32 0
  %31 = load double, ptr %30, align 8
  %32 = load ptr, ptr %7, align 8
  %33 = getelementptr inbounds %"struct.(anonymous namespace)::pj_putp6", ptr %32, i32 0, i32 4
  %34 = load double, ptr %33, align 8
  %35 = load double, ptr %8, align 8
  %36 = fsub double %34, %35
  %37 = fmul double %31, %36
  %38 = fdiv double %28, %37
  %39 = getelementptr inbounds %struct.PJ_LP, ptr %4, i32 0, i32 0
  store double %38, ptr %39, align 8
  %40 = load ptr, ptr %6, align 8
  %41 = getelementptr inbounds %struct.PJconsts, ptr %40, i32 0, i32 0
  %42 = load ptr, ptr %41, align 8
  %43 = load ptr, ptr %7, align 8
  %44 = getelementptr inbounds %"struct.(anonymous namespace)::pj_putp6", ptr %43, i32 0, i32 2
  %45 = load double, ptr %44, align 8
  %46 = load double, ptr %8, align 8
  %47 = fsub double %45, %46
  %48 = getelementptr inbounds %struct.PJ_LP, ptr %4, i32 0, i32 1
  %49 = load double, ptr %48, align 8
  %50 = getelementptr inbounds %struct.PJ_LP, ptr %4, i32 0, i32 1
  %51 = load double, ptr %50, align 8
  %52 = load double, ptr %8, align 8
  %53 = fadd double %51, %52
  %54 = call double @log(double noundef %53) #8
  %55 = fneg double %54
  %56 = call double @llvm.fmuladd.f64(double %47, double %49, double %55)
  %57 = load ptr, ptr %7, align 8
  %58 = getelementptr inbounds %"struct.(anonymous namespace)::pj_putp6", ptr %57, i32 0, i32 3
  %59 = load double, ptr %58, align 8
  %60 = fdiv double %56, %59
  %61 = call noundef double @_Z5aasinP6pj_ctxd(ptr noundef %42, double noundef %60)
  %62 = getelementptr inbounds %struct.PJ_LP, ptr %4, i32 0, i32 1
  store double %61, ptr %62, align 8
  %63 = load { double, double }, ptr %4, align 8
  ret { double, double } %63
}