; Function Attrs: mustprogress uwtable
define internal { double, double } @_ZL15putp6_s_inverse5PJ_XYP8PJconsts(double %0, double %1, ptr nocapture noundef readonly %2) #0 {
  %4 = getelementptr inbounds i8, ptr %2, i64 88
  %5 = load ptr, ptr %4, align 8
  %6 = getelementptr inbounds i8, ptr %5, i64 8
  %7 = load double, ptr %6, align 8
  %8 = fdiv double %1, %7
  %9 = tail call double @llvm.fmuladd.f64(double %8, double %8, double 1.000000e+00)
  %sqrt = tail call double @llvm.sqrt.f64(double %9)
  %10 = load double, ptr %5, align 8
  %11 = getelementptr inbounds i8, ptr %5, i64 32
  %12 = load double, ptr %11, align 8
  %13 = fsub double %12, %sqrt
  %14 = fmul double %10, %13
  %15 = fdiv double %0, %14
  %16 = load ptr, ptr %2, align 8
  %17 = getelementptr inbounds i8, ptr %5, i64 16
  %18 = load double, ptr %17, align 8
  %19 = fsub double %18, %sqrt
  %20 = fadd double %8, %sqrt
  %21 = tail call double @log(double noundef %20) #8
  %22 = fneg double %21
  %23 = tail call double @llvm.fmuladd.f64(double %19, double %8, double %22)
  %24 = getelementptr inbounds i8, ptr %5, i64 24
  %25 = load double, ptr %24, align 8
  %26 = fdiv double %23, %25
  %27 = tail call noundef double @_Z5aasinP6pj_ctxd(ptr noundef %16, double noundef %26)
  %.fca.0.insert = insertvalue { double, double } poison, double %15, 0
  %.fca.1.insert = insertvalue { double, double } %.fca.0.insert, double %27, 1
  ret { double, double } %.fca.1.insert
}